target datalayout = "e-m:e-p270:32:32-p271:32:32-p272:64:64-i64:64-i128:128-f80:128-n8:16:32:64-S128"
target triple = "x86_64-pc-linux-gnu"

%union.pthread_mutex_t = type { %struct.__pthread_mutex_s }
%struct.__pthread_mutex_s = type { i32, i32, i32, i32, i32, i16, i16, %struct.__pthread_internal_list }
%struct.__pthread_internal_list = type { ptr, ptr }
%struct.pmix_tma = type { ptr, ptr, ptr, ptr, ptr, ptr, ptr, ptr }
%struct.event = type { %struct.event_callback, %union.anon.0, i32, ptr, %union.anon.2, i16, i16, %struct.timeval }
%struct.event_callback = type { %struct.anon, i16, i8, i8, %union.anon, ptr }
%struct.anon = type { ptr, ptr }
%union.anon = type { ptr }
%union.anon.0 = type { %struct.anon.1 }
%struct.anon.1 = type { ptr, ptr }
%union.anon.2 = type { %struct.anon.3 }
%struct.anon.3 = type { %struct.anon.4, %struct.timeval }
%struct.anon.4 = type { ptr, ptr }
%struct.timeval = type { i64, i64 }
%struct.pmix_object_t = type { %union.pthread_mutex_t, ptr, i32, %struct.pmix_tma }
%struct.pmix_proc = type { [256 x i8], i32 }
%struct.pmix_proc_type_t = type { i32, i8, i8, i8, i8 }
%struct.pmix_pending_connection_t = type { %struct.pmix_object_t, %struct.event, i16, i32, i8, i8, %struct.pmix_proc, ptr, i64, i32, %struct.sockaddr_storage, ptr, ptr, ptr, ptr, ptr, i8, ptr, i64, i32, i32, %struct.pmix_proc_type_t }
%struct.sockaddr_storage = type { i16, [118 x i8], i64 }

; Function Attrs: nounwind uwtable
define internal void @pccon(ptr noundef %0) #0 {
  %2 = alloca ptr, align 8
  store ptr %0, ptr %2, align 8, !tbaa !107
  %3 = load ptr, ptr %2, align 8, !tbaa !107
  %4 = getelementptr inbounds nuw %struct.pmix_pending_connection_t, ptr %3, i32 0, i32 4
  store i8 0, ptr %4, align 8, !tbaa !133
  %5 = load ptr, ptr %2, align 8, !tbaa !107
  %6 = getelementptr inbounds nuw %struct.pmix_pending_connection_t, ptr %5, i32 0, i32 6
  call void @PMIx_Load_procid(ptr noundef %6, ptr noundef null, i32 noundef -1)
  %7 = load ptr, ptr %2, align 8, !tbaa !107
  %8 = getelementptr inbounds nuw %struct.pmix_pending_connection_t, ptr %7, i32 0, i32 7
  store ptr null, ptr %8, align 8, !tbaa !137
  %9 = load ptr, ptr %2, align 8, !tbaa !107
  %10 = getelementptr inbounds nuw %struct.pmix_pending_connection_t, ptr %9, i32 0, i32 8
  store i64 0, ptr %10, align 8, !tbaa !138
  %11 = load ptr, ptr %2, align 8, !tbaa !107
  %12 = getelementptr inbounds nuw %struct.pmix_pending_connection_t, ptr %11, i32 0, i32 11
  store ptr null, ptr %12, align 8, !tbaa !139
  %13 = load ptr, ptr %2, align 8, !tbaa !107
  %14 = getelementptr inbounds nuw %struct.pmix_pending_connection_t, ptr %13, i32 0, i32 12
  store ptr null, ptr %14, align 8, !tbaa !140
  %15 = load ptr, ptr %2, align 8, !tbaa !107
  %16 = getelementptr inbounds nuw %struct.pmix_pending_connection_t, ptr %15, i32 0, i32 13
  store ptr null, ptr %16, align 8, !tbaa !141
  %17 = load ptr, ptr %2, align 8, !tbaa !107
  %18 = getelementptr inbounds nuw %struct.pmix_pending_connection_t, ptr %17, i32 0, i32 14
  store ptr null, ptr %18, align 8, !tbaa !142
  %19 = load ptr, ptr %2, align 8, !tbaa !107
  %20 = getelementptr inbounds nuw %struct.pmix_pending_connection_t, ptr %19, i32 0, i32 15
  store ptr null, ptr %20, align 8, !tbaa !143
  %21 = load ptr, ptr %2, align 8, !tbaa !107
  %22 = getelementptr inbounds nuw %struct.pmix_pending_connection_t, ptr %21, i32 0, i32 17
  store ptr null, ptr %22, align 8, !tbaa !144
  %23 = load ptr, ptr %2, align 8, !tbaa !107
  %24 = getelementptr inbounds nuw %struct.pmix_pending_connection_t, ptr %23, i32 0, i32 21
  %25 = getelementptr inbounds nuw %struct.pmix_proc_type_t, ptr %24, i32 0, i32 0
  store i32 0, ptr %25, align 8, !tbaa !145
  %26 = load ptr, ptr %2, align 8, !tbaa !107
  %27 = getelementptr inbounds nuw %struct.pmix_pending_connection_t, ptr %26, i32 0, i32 21
  %28 = getelementptr inbounds nuw %struct.pmix_proc_type_t, ptr %27, i32 0, i32 1
  store i8 -1, ptr %28, align 4, !tbaa !146
  %29 = load ptr, ptr %2, align 8, !tbaa !107
  %30 = getelementptr inbounds nuw %struct.pmix_pending_connection_t, ptr %29, i32 0, i32 21
  %31 = getelementptr inbounds nuw %struct.pmix_proc_type_t, ptr %30, i32 0, i32 2
  store i8 -1, ptr %31, align 1, !tbaa !147
  %32 = load ptr, ptr %2, align 8, !tbaa !107
  %33 = getelementptr inbounds nuw %struct.pmix_pending_connection_t, ptr %32, i32 0, i32 21
  %34 = getelementptr inbounds nuw %struct.pmix_proc_type_t, ptr %33, i32 0, i32 3
  store i8 -1, ptr %34, align 2, !tbaa !148
  %35 = load ptr, ptr %2, align 8, !tbaa !107
  %36 = getelementptr inbounds nuw %struct.pmix_pending_connection_t, ptr %35, i32 0, i32 21
  %37 = getelementptr inbounds nuw %struct.pmix_proc_type_t, ptr %36, i32 0, i32 4
  store i8 0, ptr %37, align 1, !tbaa !149
  ret void
}