; Function Attrs: nounwind uwtable
define internal void @pccon(ptr noundef initializes((256, 257)) %0) #0 {
  %2 = getelementptr inbounds nuw i8, ptr %0, i64 256
  store i8 0, ptr %2, align 8, !tbaa !125
  %3 = getelementptr inbounds nuw i8, ptr %0, i64 260
  tail call void @PMIx_Load_procid(ptr noundef nonnull %3, ptr noundef null, i32 noundef -1) #16
  %4 = getelementptr inbounds nuw i8, ptr %0, i64 520
  %5 = getelementptr inbounds nuw i8, ptr %0, i64 672
  %6 = getelementptr inbounds nuw i8, ptr %0, i64 720
  store ptr null, ptr %6, align 8, !tbaa !129
  %7 = getelementptr inbounds nuw i8, ptr %0, i64 744
  store i32 0, ptr %7, align 8, !tbaa !130
  %8 = getelementptr inbounds nuw i8, ptr %0, i64 748
  tail call void @llvm.memset.p0.i64(ptr noundef nonnull align 8 dereferenceable(16) %4, i8 0, i64 16, i1 false)
  tail call void @llvm.memset.p0.i64(ptr noundef nonnull align 8 dereferenceable(40) %5, i8 0, i64 40, i1 false)
  store i8 -1, ptr %8, align 4, !tbaa !131
  %9 = getelementptr inbounds nuw i8, ptr %0, i64 749
  store i8 -1, ptr %9, align 1, !tbaa !132
  %10 = getelementptr inbounds nuw i8, ptr %0, i64 750
  store i8 -1, ptr %10, align 2, !tbaa !133
  %11 = getelementptr inbounds nuw i8, ptr %0, i64 751
  store i8 0, ptr %11, align 1, !tbaa !134
  ret void
}